; Function Attrs: nofree norecurse nosync nounwind memory(read, inaccessiblemem: none) uwtable
define internal i32 @callbackHash(ptr nocapture noundef readonly %key) #7 {
entry:
  %arrayidx.i = getelementptr inbounds i8, ptr %key, i64 -1
  %0 = load i8, ptr %arrayidx.i, align 1
  %conv.i = zext i8 %0 to i32
  %and.i = and i32 %conv.i, 7
  switch i32 %and.i, label %dictGenHashFunction.exit [
    i32 0, label %sw.bb.i
    i32 1, label %sw.bb3.i
    i32 2, label %sw.bb5.i
    i32 3, label %sw.bb9.i
    i32 4, label %sw.bb13.i
  ]

sw.bb.i:                                          ; preds = %entry
  %shr.i = lshr i32 %conv.i, 3
  %conv2.i = zext nneg i32 %shr.i to i64
  br label %hi_sdslen.exit

sw.bb3.i:                                         ; preds = %entry
  %add.ptr.i = getelementptr inbounds i8, ptr %key, i64 -3
  %1 = load i8, ptr %add.ptr.i, align 1
  %conv4.i = zext i8 %1 to i64
  br label %hi_sdslen.exit

sw.bb5.i:                                         ; preds = %entry
  %add.ptr6.i = getelementptr inbounds i8, ptr %key, i64 -5
  %2 = load i16, ptr %add.ptr6.i, align 1
  %conv8.i = zext i16 %2 to i64
  br label %hi_sdslen.exit

sw.bb9.i:                                         ; preds = %entry
  %add.ptr10.i = getelementptr inbounds i8, ptr %key, i64 -9
  %3 = load i32, ptr %add.ptr10.i, align 1
  %conv12.i = zext i32 %3 to i64
  br label %hi_sdslen.exit

sw.bb13.i:                                        ; preds = %entry
  %add.ptr14.i = getelementptr inbounds i8, ptr %key, i64 -17
  %4 = load i64, ptr %add.ptr14.i, align 1
  br label %hi_sdslen.exit

hi_sdslen.exit:                                   ; preds = %sw.bb.i, %sw.bb3.i, %sw.bb5.i, %sw.bb9.i, %sw.bb13.i
  %retval.0.i = phi i64 [ %4, %sw.bb13.i ], [ %conv12.i, %sw.bb9.i ], [ %conv8.i, %sw.bb5.i ], [ %conv4.i, %sw.bb3.i ], [ %conv2.i, %sw.bb.i ]
  %conv = trunc i64 %retval.0.i to i32
  %tobool.not3.i = icmp eq i32 %conv, 0
  br i1 %tobool.not3.i, label %dictGenHashFunction.exit, label %while.body.i

while.body.i:                                     ; preds = %hi_sdslen.exit, %while.body.i
  %hash.06.i = phi i32 [ %add1.i, %while.body.i ], [ 5381, %hi_sdslen.exit ]
  %len.addr.05.i = phi i32 [ %dec.i, %while.body.i ], [ %conv, %hi_sdslen.exit ]
  %buf.addr.04.i = phi ptr [ %incdec.ptr.i, %while.body.i ], [ %key, %hi_sdslen.exit ]
  %dec.i = add nsw i32 %len.addr.05.i, -1
  %add.i = mul i32 %hash.06.i, 33
  %incdec.ptr.i = getelementptr inbounds i8, ptr %buf.addr.04.i, i64 1
  %5 = load i8, ptr %buf.addr.04.i, align 1
  %conv.i2 = zext i8 %5 to i32
  %add1.i = add i32 %add.i, %conv.i2
  %tobool.not.i = icmp eq i32 %dec.i, 0
  br i1 %tobool.not.i, label %dictGenHashFunction.exit, label %while.body.i

dictGenHashFunction.exit:                         ; preds = %while.body.i, %entry, %hi_sdslen.exit
  %hash.0.lcssa.i = phi i32 [ 5381, %hi_sdslen.exit ], [ 5381, %entry ], [ %add1.i, %while.body.i ]
  ret i32 %hash.0.lcssa.i
}